
/home/vlad/scr1/build/verilator_wf_AHB_IMC/illegal.elf:     формат файла elf32-littleriscv


Дизассемблирование раздела .text.init:

00000000 <SIM_EXIT-0xf4>:
	...

000000f4 <SIM_EXIT>:
      f4:	00000013          	nop

000000f8 <SIM_STOP>:
      f8:	0000006f          	j	f8 <SIM_STOP>
      fc:	ffff                	0xffff
      fe:	ffff                	0xffff
	...

00001880 <trap_vector>:
    1880:	34202773          	csrr	a4,mcause
    1884:	4789                	li	a5,2
    1886:	02f71f63          	bne	a4,a5,18c4 <trap_vector+0x44>
    188a:	f00005b7          	lui	a1,0xf0000
    188e:	06900793          	li	a5,105
    1892:	00f58023          	sb	a5,0(a1) # f0000000 <__global_pointer$+0xefffd238>
    1896:	06c00793          	li	a5,108
    189a:	00f58023          	sb	a5,0(a1)
    189e:	06c00793          	li	a5,108
    18a2:	00f58023          	sb	a5,0(a1)
    18a6:	06500793          	li	a5,101
    18aa:	00f58023          	sb	a5,0(a1)
    18ae:	07800793          	li	a5,120
    18b2:	00f58023          	sb	a5,0(a1)
    18b6:	06300793          	li	a5,99
    18ba:	00f58023          	sb	a5,0(a1)
    18be:	47a9                	li	a5,10
    18c0:	00f58023          	sb	a5,0(a1)
    18c4:	47a1                	li	a5,8
    18c6:	02f70463          	beq	a4,a5,18ee <_report>
    18ca:	47a5                	li	a5,9
    18cc:	02f70163          	beq	a4,a5,18ee <_report>
    18d0:	47ad                	li	a5,11
    18d2:	00f70e63          	beq	a4,a5,18ee <_report>
    18d6:	00001717          	auipc	a4,0x1
    18da:	a2a70713          	addi	a4,a4,-1494 # 2300 <mtvec_handler>
    18de:	c311                	beqz	a4,18e2 <trap_vector+0x62>
    18e0:	8702                	jr	a4
    18e2:	34202773          	csrr	a4,mcause
    18e6:	00075363          	bgez	a4,18ec <handle_exception>
    18ea:	a009                	j	18ec <handle_exception>

000018ec <handle_exception>:
    18ec:	4505                	li	a0,1

000018ee <_report>:
    18ee:	4130006f          	j	2500 <sc_exit>
    18f2:	00000013          	nop
    18f6:	00000013          	nop
    18fa:	00000013          	nop
    18fe:	0001                	nop
	...

00002000 <_start>:
    2000:	f1402573          	csrr	a0,mhartid
    2004:	e101                	bnez	a0,2004 <_start+0x4>
    2006:	4e01                	li	t3,0
    2008:	00000297          	auipc	t0,0x0
    200c:	87828293          	addi	t0,t0,-1928 # 1880 <trap_vector>
    2010:	30529073          	csrw	mtvec,t0
    2014:	4505                	li	a0,1
    2016:	057e                	slli	a0,a0,0x1f
    2018:	00054863          	bltz	a0,2028 <_start+0x28>
    201c:	0ff0000f          	fence
    2020:	85f2                	mv	a1,t3
    2022:	4501                	li	a0,0
    2024:	00000073          	ecall
    2028:	ffffe297          	auipc	t0,0xffffe
    202c:	fd828293          	addi	t0,t0,-40 # 0 <CL_SIZE-0x20>
    2030:	02028063          	beqz	t0,2050 <_start+0x50>
    2034:	10529073          	csrw	stvec,t0
    2038:	0000b2b7          	lui	t0,0xb
    203c:	10928293          	addi	t0,t0,265 # b109 <__global_pointer$+0x8341>
    2040:	30229073          	csrw	medeleg,t0
    2044:	30202373          	csrr	t1,medeleg
    2048:	00628463          	beq	t0,t1,2050 <_start+0x50>
    204c:	8a1ff06f          	j	18ec <handle_exception>
    2050:	30005073          	csrwi	mstatus,0
    2054:	00002537          	lui	a0,0x2
    2058:	80050513          	addi	a0,a0,-2048 # 1800 <STACK_SIZE+0x1400>
    205c:	30052073          	csrs	mstatus,a0
    2060:	00000297          	auipc	t0,0x0
    2064:	0a028293          	addi	t0,t0,160 # 2100 <_run_test>
    2068:	34129073          	csrw	mepc,t0
    206c:	f1402573          	csrr	a0,mhartid
    2070:	30200073          	mret

Дизассемблирование раздела .text:

00002100 <_run_test>:
    2100:	00200e13          	li	t3,2

00002104 <bad2>:
    2104:	0000                	unimp
    2106:	0000                	unimp
    2108:	0f40006f          	j	21fc <fail>
    210c:	000022b7          	lui	t0,0x2
    2110:	80028293          	addi	t0,t0,-2048 # 1800 <STACK_SIZE+0x1400>
    2114:	3002b073          	csrc	mstatus,t0
    2118:	00001337          	lui	t1,0x1
    211c:	80030313          	addi	t1,t1,-2048 # 800 <STACK_SIZE+0x400>
    2120:	30032073          	csrs	mstatus,t1
    2124:	300023f3          	csrr	t2,mstatus
    2128:	0053f3b3          	and	t2,t2,t0
    212c:	0e731063          	bne	t1,t2,220c <pass>

00002130 <test_vectored_interrupts>:
    2130:	34415073          	csrwi	mip,2
    2134:	30415073          	csrwi	mie,2
    2138:	00000297          	auipc	t0,0x0
    213c:	1c928293          	addi	t0,t0,457 # 2301 <mtvec_handler+0x1>
    2140:	30529473          	csrrw	s0,mtvec,t0
    2144:	305022f3          	csrr	t0,mtvec
    2148:	0012f293          	andi	t0,t0,1
    214c:	00028663          	beqz	t0,2158 <msip>
    2150:	30046073          	csrsi	mstatus,8
    2154:	0000006f          	j	2154 <test_vectored_interrupts+0x24>

00002158 <msip>:
    2158:	30541073          	csrw	mtvec,s0
    215c:	30315073          	csrwi	mideleg,2
    2160:	00000297          	auipc	t0,0x0
    2164:	02828293          	addi	t0,t0,40 # 2188 <msip+0x30>
    2168:	34129073          	csrw	mepc,t0
    216c:	000022b7          	lui	t0,0x2
    2170:	80028293          	addi	t0,t0,-2048 # 1800 <STACK_SIZE+0x1400>
    2174:	3002b073          	csrc	mstatus,t0
    2178:	00001337          	lui	t1,0x1
    217c:	80030313          	addi	t1,t1,-2048 # 800 <STACK_SIZE+0x400>
    2180:	30032073          	csrs	mstatus,t1
    2184:	30200073          	mret
    2188:	10500073          	wfi

0000218c <bad3>:
    218c:	0000                	unimp
    218e:	0000                	unimp
    2190:	06c0006f          	j	21fc <fail>

00002194 <bad4>:
    2194:	10500073          	wfi
    2198:	0640006f          	j	21fc <fail>
    219c:	12000073          	sfence.vma
    21a0:	180022f3          	csrr	t0,sptbr

000021a4 <bad5>:
    21a4:	0000                	unimp
    21a6:	0000                	unimp
    21a8:	0540006f          	j	21fc <fail>

000021ac <bad6>:
    21ac:	12000073          	sfence.vma
    21b0:	04c0006f          	j	21fc <fail>

000021b4 <bad7>:
    21b4:	180022f3          	csrr	t0,sptbr
    21b8:	0440006f          	j	21fc <fail>
    21bc:	00000297          	auipc	t0,0x0
    21c0:	02028293          	addi	t0,t0,32 # 21dc <bad8>
    21c4:	14129073          	csrw	sepc,t0
    21c8:	10000293          	li	t0,256
    21cc:	1002a073          	csrs	sstatus,t0
    21d0:	02000293          	li	t0,32
    21d4:	1002b073          	csrc	sstatus,t0
    21d8:	10200073          	sret

000021dc <bad8>:
    21dc:	0000                	unimp
    21de:	0000                	unimp
    21e0:	01c0006f          	j	21fc <fail>
    21e4:	00000297          	auipc	t0,0x0
    21e8:	01028293          	addi	t0,t0,16 # 21f4 <bad9+0x4>
    21ec:	14129073          	csrw	sepc,t0

000021f0 <bad9>:
    21f0:	10200073          	sret
    21f4:	0080006f          	j	21fc <fail>
    21f8:	01c01a63          	bne	zero,t3,220c <pass>

000021fc <fail>:
    21fc:	0ff0000f          	fence
    2200:	000e0593          	mv	a1,t3
    2204:	00100513          	li	a0,1
    2208:	00000073          	ecall

0000220c <pass>:
    220c:	0ff0000f          	fence
    2210:	000e0593          	mv	a1,t3
    2214:	00000513          	li	a0,0
    2218:	00000073          	ecall
    221c:	00000013          	nop
    2220:	00000013          	nop
    2224:	00000013          	nop
    2228:	00000013          	nop
    222c:	00000013          	nop
    2230:	00000013          	nop
    2234:	00000013          	nop
    2238:	00000013          	nop
    223c:	00000013          	nop
    2240:	00000013          	nop
    2244:	00000013          	nop
    2248:	00000013          	nop
    224c:	00000013          	nop
    2250:	00000013          	nop
    2254:	00000013          	nop
    2258:	00000013          	nop
    225c:	00000013          	nop
    2260:	00000013          	nop
    2264:	00000013          	nop
    2268:	00000013          	nop
    226c:	00000013          	nop
    2270:	00000013          	nop
    2274:	00000013          	nop
    2278:	00000013          	nop
    227c:	00000013          	nop
    2280:	00000013          	nop
    2284:	00000013          	nop
    2288:	00000013          	nop
    228c:	00000013          	nop
    2290:	00000013          	nop
    2294:	00000013          	nop
    2298:	00000013          	nop
    229c:	00000013          	nop
    22a0:	00000013          	nop
    22a4:	00000013          	nop
    22a8:	00000013          	nop
    22ac:	00000013          	nop
    22b0:	00000013          	nop
    22b4:	00000013          	nop
    22b8:	00000013          	nop
    22bc:	00000013          	nop
    22c0:	00000013          	nop
    22c4:	00000013          	nop
    22c8:	00000013          	nop
    22cc:	00000013          	nop
    22d0:	00000013          	nop
    22d4:	00000013          	nop
    22d8:	00000013          	nop
    22dc:	00000013          	nop
    22e0:	00000013          	nop
    22e4:	00000013          	nop
    22e8:	00000013          	nop
    22ec:	00000013          	nop
    22f0:	00000013          	nop
    22f4:	00000013          	nop
    22f8:	00000013          	nop
    22fc:	00000013          	nop

00002300 <mtvec_handler>:
    2300:	0400006f          	j	2340 <synchronous_exception>
    2304:	e55ff06f          	j	2158 <msip>
    2308:	ef5ff06f          	j	21fc <fail>
    230c:	ef1ff06f          	j	21fc <fail>
    2310:	eedff06f          	j	21fc <fail>
    2314:	ee9ff06f          	j	21fc <fail>
    2318:	ee5ff06f          	j	21fc <fail>
    231c:	ee1ff06f          	j	21fc <fail>
    2320:	eddff06f          	j	21fc <fail>
    2324:	ed9ff06f          	j	21fc <fail>
    2328:	ed5ff06f          	j	21fc <fail>
    232c:	ed1ff06f          	j	21fc <fail>
    2330:	ecdff06f          	j	21fc <fail>
    2334:	ec9ff06f          	j	21fc <fail>
    2338:	ec5ff06f          	j	21fc <fail>
    233c:	ec1ff06f          	j	21fc <fail>

00002340 <synchronous_exception>:
    2340:	00200313          	li	t1,2
    2344:	342022f3          	csrr	t0,mcause
    2348:	ea629ae3          	bne	t0,t1,21fc <fail>
    234c:	341022f3          	csrr	t0,mepc
    2350:	00000317          	auipc	t1,0x0
    2354:	db430313          	addi	t1,t1,-588 # 2104 <bad2>
    2358:	04628e63          	beq	t0,t1,23b4 <synchronous_exception+0x74>
    235c:	00000317          	auipc	t1,0x0
    2360:	e3030313          	addi	t1,t1,-464 # 218c <bad3>
    2364:	04628e63          	beq	t0,t1,23c0 <synchronous_exception+0x80>
    2368:	00000317          	auipc	t1,0x0
    236c:	e2c30313          	addi	t1,t1,-468 # 2194 <bad4>
    2370:	04628263          	beq	t0,t1,23b4 <synchronous_exception+0x74>
    2374:	00000317          	auipc	t1,0x0
    2378:	e3030313          	addi	t1,t1,-464 # 21a4 <bad5>
    237c:	04628863          	beq	t0,t1,23cc <synchronous_exception+0x8c>
    2380:	00000317          	auipc	t1,0x0
    2384:	e2c30313          	addi	t1,t1,-468 # 21ac <bad6>
    2388:	02628663          	beq	t0,t1,23b4 <synchronous_exception+0x74>
    238c:	00000317          	auipc	t1,0x0
    2390:	e2830313          	addi	t1,t1,-472 # 21b4 <bad7>
    2394:	02628063          	beq	t0,t1,23b4 <synchronous_exception+0x74>
    2398:	00000317          	auipc	t1,0x0
    239c:	e4430313          	addi	t1,t1,-444 # 21dc <bad8>
    23a0:	02628c63          	beq	t0,t1,23d8 <synchronous_exception+0x98>
    23a4:	00000317          	auipc	t1,0x0
    23a8:	e4c30313          	addi	t1,t1,-436 # 21f0 <bad9>
    23ac:	02628c63          	beq	t0,t1,23e4 <synchronous_exception+0xa4>
    23b0:	e4dff06f          	j	21fc <fail>
    23b4:	00828293          	addi	t0,t0,8
    23b8:	34129073          	csrw	mepc,t0
    23bc:	30200073          	mret
    23c0:	00200337          	lui	t1,0x200
    23c4:	30032073          	csrs	mstatus,t1
    23c8:	fedff06f          	j	23b4 <synchronous_exception+0x74>
    23cc:	00100337          	lui	t1,0x100
    23d0:	30032073          	csrs	mstatus,t1
    23d4:	fe1ff06f          	j	23b4 <synchronous_exception+0x74>
    23d8:	00400337          	lui	t1,0x400
    23dc:	30032073          	csrs	mstatus,t1
    23e0:	fd5ff06f          	j	23b4 <synchronous_exception+0x74>
    23e4:	fd1ff06f          	j	23b4 <synchronous_exception+0x74>

000023e8 <ecall>:
    23e8:	00000073          	ecall
	...

00002500 <sc_exit>:
    2500:	bf5fd06f          	j	f4 <SIM_EXIT>
    2504:	00000013          	nop
    2508:	00000013          	nop
    250c:	00000013          	nop
    2510:	00000013          	nop
    2514:	00000013          	nop
    2518:	00000013          	nop
    251c:	00000013          	nop
	...

Дизассемблирование раздела .data:

00002540 <begin_regstate>:
	...

Дизассемблирование раздела .tohost:

00002580 <tohost>:
	...

000025c0 <fromhost>:
	...

Дизассемблирование раздела .sdata:

000025c8 <__global_pointer$-0x800>:
	...

Дизассемблирование раздела .stack:

0000fc00 <.stack>:
	...
